target datalayout = "e-m:e-p270:32:32-p271:32:32-p272:64:64-i64:64-i128:128-f80:128-n8:16:32:64-S128"
target triple = "x86_64-pc-linux-gnu"

%"class.Ipopt::DenseVector" = type { %"class.Ipopt::Vector.base", ptr, ptr, ptr, i8, i8, double }
%"class.Ipopt::Vector.base" = type <{ %"class.Ipopt::TaggedObject", %"class.Ipopt::SmartPtr", %"class.Ipopt::CachedResults", i32, [4 x i8], double, i32, [4 x i8], double, i32, [4 x i8], double, i32, [4 x i8], double, i32, [4 x i8], double, i32, [4 x i8], double, i32, [4 x i8], double, i32, i8 }>
%"class.Ipopt::TaggedObject" = type { %"class.Ipopt::ReferencedObject.base", %"class.Ipopt::Subject", i32, i32 }
%"class.Ipopt::ReferencedObject.base" = type <{ ptr, i32 }>
%"class.Ipopt::Subject" = type { ptr, %"class.std::vector" }
%"class.std::vector" = type { %"struct.std::_Vector_base" }
%"struct.std::_Vector_base" = type { %"struct.std::_Vector_base<Ipopt::Observer *, std::allocator<Ipopt::Observer *>>::_Vector_impl" }
%"struct.std::_Vector_base<Ipopt::Observer *, std::allocator<Ipopt::Observer *>>::_Vector_impl" = type { %"struct.std::_Vector_base<Ipopt::Observer *, std::allocator<Ipopt::Observer *>>::_Vector_impl_data" }
%"struct.std::_Vector_base<Ipopt::Observer *, std::allocator<Ipopt::Observer *>>::_Vector_impl_data" = type { ptr, ptr, ptr }
%"class.Ipopt::SmartPtr" = type { ptr }
%"class.Ipopt::CachedResults" = type { ptr, i32, ptr }

; Function Attrs: noreturn nounwind uwtable
define linkonce_odr hidden void @__clang_call_terminate(ptr noundef %0) #2 comdat {
  %2 = call ptr @__cxa_begin_catch(ptr %0) #11
  call void @_ZSt9terminatev() #12
  unreachable
}

; Function Attrs: mustprogress nounwind uwtable
define linkonce_odr void @_ZNK5Ipopt16DenseVectorSpace19FreeInternalStorageEPd(ptr noundef nonnull align 8 dereferenceable(160) %0, ptr noundef %1) #1 comdat align 2 {
  %3 = alloca ptr, align 8
  %4 = alloca ptr, align 8
  store ptr %0, ptr %3, align 8
  store ptr %1, ptr %4, align 8
  %5 = load ptr, ptr %4, align 8
  %6 = icmp eq ptr %5, null
  br i1 %6, label %8, label %7

7:                                                ; preds = %2
  call void @_ZdaPv(ptr noundef %5) #13
  br label %8

8:                                                ; preds = %7, %2
  ret void
}

; Function Attrs: mustprogress nounwind uwtable
define void @_ZN5Ipopt11DenseVectorD2Ev(ptr noundef nonnull align 8 dereferenceable(248) %0) unnamed_addr #1 align 2 personality ptr @__gxx_personality_v0 {
  %2 = alloca ptr, align 8
  store ptr %0, ptr %2, align 8
  %3 = load ptr, ptr %2, align 8
  store ptr getelementptr inbounds ({ [31 x ptr], [4 x ptr] }, ptr @_ZTVN5Ipopt11DenseVectorE, i32 0, i32 0, i32 2), ptr %3, align 8
  %4 = getelementptr inbounds i8, ptr %3, i64 16
  store ptr getelementptr inbounds ({ [31 x ptr], [4 x ptr] }, ptr @_ZTVN5Ipopt11DenseVectorE, i32 0, i32 1, i32 2), ptr %4, align 8
  %5 = getelementptr inbounds %"class.Ipopt::DenseVector", ptr %3, i32 0, i32 2
  %6 = load ptr, ptr %5, align 8
  %7 = icmp ne ptr %6, null
  br i1 %7, label %8, label %14

8:                                                ; preds = %1
  %9 = getelementptr inbounds %"class.Ipopt::DenseVector", ptr %3, i32 0, i32 1
  %10 = load ptr, ptr %9, align 8
  %11 = getelementptr inbounds %"class.Ipopt::DenseVector", ptr %3, i32 0, i32 2
  %12 = load ptr, ptr %11, align 8
  invoke void @_ZNK5Ipopt16DenseVectorSpace19FreeInternalStorageEPd(ptr noundef nonnull align 8 dereferenceable(160) %10, ptr noundef %12)
          to label %13 unwind label %25

13:                                               ; preds = %8
  br label %14

14:                                               ; preds = %13, %1
  %15 = getelementptr inbounds %"class.Ipopt::DenseVector", ptr %3, i32 0, i32 3
  %16 = load ptr, ptr %15, align 8
  %17 = icmp ne ptr %16, null
  br i1 %17, label %18, label %24

18:                                               ; preds = %14
  %19 = getelementptr inbounds %"class.Ipopt::DenseVector", ptr %3, i32 0, i32 1
  %20 = load ptr, ptr %19, align 8
  %21 = getelementptr inbounds %"class.Ipopt::DenseVector", ptr %3, i32 0, i32 3
  %22 = load ptr, ptr %21, align 8
  invoke void @_ZNK5Ipopt16DenseVectorSpace19FreeInternalStorageEPd(ptr noundef nonnull align 8 dereferenceable(160) %20, ptr noundef %22)
          to label %23 unwind label %25

23:                                               ; preds = %18
  br label %24

24:                                               ; preds = %23, %14
  call void @_ZN5Ipopt6VectorD2Ev(ptr noundef nonnull align 8 dereferenceable(205) %3) #11
  ret void

25:                                               ; preds = %18, %8
  %26 = landingpad { ptr, i32 }
          catch ptr null
  %27 = extractvalue { ptr, i32 } %26, 0
  call void @__clang_call_terminate(ptr %27) #12
  unreachable
}