; Function Attrs: mustprogress nounwind uwtable
define void @_ZN5Ipopt11DenseVectorD2Ev(ptr noundef nonnull align 8 dereferenceable(248) %0) unnamed_addr #1 align 2 personality ptr @__gxx_personality_v0 {
  store ptr getelementptr inbounds ({ [31 x ptr], [4 x ptr] }, ptr @_ZTVN5Ipopt11DenseVectorE, i64 0, i32 0, i64 2), ptr %0, align 8
  %2 = getelementptr inbounds i8, ptr %0, i64 16
  store ptr getelementptr inbounds ({ [31 x ptr], [4 x ptr] }, ptr @_ZTVN5Ipopt11DenseVectorE, i64 0, i32 1, i64 2), ptr %2, align 8
  %3 = getelementptr inbounds i8, ptr %0, i64 216
  %4 = load ptr, ptr %3, align 8
  %.not = icmp eq ptr %4, null
  br i1 %.not, label %5, label %_ZNK5Ipopt16DenseVectorSpace19FreeInternalStorageEPd.exit

_ZNK5Ipopt16DenseVectorSpace19FreeInternalStorageEPd.exit: ; preds = %1
  tail call void @_ZdaPv(ptr noundef nonnull %4) #16
  br label %5

5:                                                ; preds = %_ZNK5Ipopt16DenseVectorSpace19FreeInternalStorageEPd.exit, %1
  %6 = getelementptr inbounds i8, ptr %0, i64 224
  %7 = load ptr, ptr %6, align 8
  %.not2 = icmp eq ptr %7, null
  br i1 %.not2, label %8, label %_ZNK5Ipopt16DenseVectorSpace19FreeInternalStorageEPd.exit3

_ZNK5Ipopt16DenseVectorSpace19FreeInternalStorageEPd.exit3: ; preds = %5
  tail call void @_ZdaPv(ptr noundef nonnull %7) #16
  br label %8

8:                                                ; preds = %_ZNK5Ipopt16DenseVectorSpace19FreeInternalStorageEPd.exit3, %5
  tail call void @_ZN5Ipopt6VectorD2Ev(ptr noundef nonnull align 8 dereferenceable(205) %0) #15
  ret void
}